; Function Attrs: nounwind uwtable
define i32 @hwloc_get_area_memlocation(ptr noundef %0, ptr noundef %1, i64 noundef %2, ptr noundef %3, i32 noundef %4) local_unnamed_addr #0 {
  %6 = and i32 %4, 32
  %.not = icmp eq i32 %6, 0
  br i1 %.not, label %18, label %7

7:                                                ; preds = %5
  %.not.i = icmp ult i32 %4, 64
  br i1 %.not.i, label %10, label %8

8:                                                ; preds = %7
  %9 = tail call ptr @__errno_location() #12
  store i32 22, ptr %9, align 4, !tbaa !3
  br label %hwloc_get_area_memlocation_by_nodeset.exit

10:                                               ; preds = %7
  %.not11.i = icmp eq i64 %2, 0
  br i1 %.not11.i, label %hwloc_get_area_memlocation_by_nodeset.exit, label %11

11:                                               ; preds = %10
  %12 = getelementptr inbounds nuw i8, ptr %0, i64 616
  %13 = load ptr, ptr %12, align 8, !tbaa !63
  %.not12.i = icmp eq ptr %13, null
  br i1 %.not12.i, label %16, label %14

14:                                               ; preds = %11
  %15 = tail call i32 %13(ptr noundef nonnull %0, ptr noundef %1, i64 noundef %2, ptr noundef %3, i32 noundef %4) #14
  br label %hwloc_get_area_memlocation_by_nodeset.exit

16:                                               ; preds = %11
  %17 = tail call ptr @__errno_location() #12
  store i32 38, ptr %17, align 4, !tbaa !3
  br label %hwloc_get_area_memlocation_by_nodeset.exit

18:                                               ; preds = %5
  %19 = tail call noalias ptr @hwloc_bitmap_alloc() #14
  %.not.i17 = icmp ult i32 %4, 64
  br i1 %.not.i17, label %20, label %hwloc_cpuset_from_nodeset.exit.sink.split

20:                                               ; preds = %18
  %.not11.i19 = icmp eq i64 %2, 0
  br i1 %.not11.i19, label %hwloc_get_area_memlocation_by_nodeset.exit21.thread28, label %21

21:                                               ; preds = %20
  %22 = getelementptr inbounds nuw i8, ptr %0, i64 616
  %23 = load ptr, ptr %22, align 8, !tbaa !63
  %.not12.i20 = icmp eq ptr %23, null
  br i1 %.not12.i20, label %hwloc_cpuset_from_nodeset.exit.sink.split, label %hwloc_get_area_memlocation_by_nodeset.exit21

hwloc_get_area_memlocation_by_nodeset.exit21:     ; preds = %21
  %24 = tail call i32 %23(ptr noundef nonnull %0, ptr noundef %1, i64 noundef %2, ptr noundef %19, i32 noundef %4) #14
  %.not16 = icmp eq i32 %24, 0
  br i1 %.not16, label %hwloc_get_area_memlocation_by_nodeset.exit21.thread28, label %hwloc_cpuset_from_nodeset.exit

hwloc_get_area_memlocation_by_nodeset.exit21.thread28: ; preds = %20, %hwloc_get_area_memlocation_by_nodeset.exit21
  %25 = tail call i32 @hwloc_get_type_depth(ptr noundef %0, i32 noundef 14) #14
  tail call void @hwloc_bitmap_zero(ptr noundef %3) #14
  br label %26

26:                                               ; preds = %.backedge, %hwloc_get_area_memlocation_by_nodeset.exit21.thread28
  %.0.i22 = phi ptr [ null, %hwloc_get_area_memlocation_by_nodeset.exit21.thread28 ], [ %.0.i.i, %.backedge ]
  %.not.i.i = icmp eq ptr %.0.i22, null
  br i1 %.not.i.i, label %27, label %29

27:                                               ; preds = %26
  %28 = tail call ptr @hwloc_get_obj_by_depth(ptr noundef readonly %0, i32 noundef %25, i32 noundef 0) #13
  br label %hwloc_get_next_obj_by_depth.exit.i

29:                                               ; preds = %26
  %30 = getelementptr inbounds nuw i8, ptr %.0.i22, i64 48
  %31 = load i32, ptr %30, align 8, !tbaa !44
  %.not7.i.i = icmp eq i32 %31, %25
  br i1 %.not7.i.i, label %32, label %hwloc_cpuset_from_nodeset.exit

32:                                               ; preds = %29
  %33 = getelementptr inbounds nuw i8, ptr %.0.i22, i64 56
  %34 = load ptr, ptr %33, align 8, !tbaa !50
  br label %hwloc_get_next_obj_by_depth.exit.i

hwloc_get_next_obj_by_depth.exit.i:               ; preds = %32, %27
  %.0.i.i = phi ptr [ %34, %32 ], [ %28, %27 ]
  %.not.i23 = icmp eq ptr %.0.i.i, null
  br i1 %.not.i23, label %hwloc_cpuset_from_nodeset.exit, label %35

35:                                               ; preds = %hwloc_get_next_obj_by_depth.exit.i
  %36 = getelementptr inbounds nuw i8, ptr %.0.i.i, i64 16
  %37 = load i32, ptr %36, align 8, !tbaa !54
  %38 = tail call i32 @hwloc_bitmap_isset(ptr noundef readonly %19, i32 noundef %37) #13
  %.not12.i24 = icmp eq i32 %38, 0
  br i1 %.not12.i24, label %.backedge, label %39

39:                                               ; preds = %35
  %40 = getelementptr inbounds nuw i8, ptr %.0.i.i, i64 184
  %41 = load ptr, ptr %40, align 8, !tbaa !51
  %42 = tail call i32 @hwloc_bitmap_or(ptr noundef %3, ptr noundef %3, ptr noundef %41) #14
  %43 = icmp slt i32 %42, 0
  br i1 %43, label %hwloc_cpuset_from_nodeset.exit, label %.backedge

.backedge:                                        ; preds = %39, %35
  br label %26, !llvm.loop !56

hwloc_cpuset_from_nodeset.exit.sink.split:        ; preds = %21, %18
  %.sink = phi i32 [ 22, %18 ], [ 38, %21 ]
  %44 = tail call ptr @__errno_location() #12
  store i32 %.sink, ptr %44, align 4, !tbaa !3
  br label %hwloc_cpuset_from_nodeset.exit

hwloc_cpuset_from_nodeset.exit:                   ; preds = %39, %hwloc_get_next_obj_by_depth.exit.i, %29, %hwloc_cpuset_from_nodeset.exit.sink.split, %hwloc_get_area_memlocation_by_nodeset.exit21
  %.0.i1827 = phi i32 [ %24, %hwloc_get_area_memlocation_by_nodeset.exit21 ], [ -1, %hwloc_cpuset_from_nodeset.exit.sink.split ], [ 0, %29 ], [ 0, %hwloc_get_next_obj_by_depth.exit.i ], [ 0, %39 ]
  tail call void @hwloc_bitmap_free(ptr noundef %19) #14
  br label %hwloc_get_area_memlocation_by_nodeset.exit

hwloc_get_area_memlocation_by_nodeset.exit:       ; preds = %16, %14, %10, %8, %hwloc_cpuset_from_nodeset.exit
  %.0 = phi i32 [ %.0.i1827, %hwloc_cpuset_from_nodeset.exit ], [ -1, %8 ], [ %15, %14 ], [ -1, %16 ], [ 0, %10 ]
  ret i32 %.0
}